target datalayout = "e-m:e-p270:32:32-p271:32:32-p272:64:64-i64:64-i128:128-f80:128-n8:16:32:64-S128"
target triple = "x86_64-pc-linux-gnu"

%struct.AVStream = type { ptr, i32, i32, ptr, ptr, %struct.AVRational, i64, i64, i64, i32, i32, %struct.AVRational, ptr, %struct.AVRational, %struct.AVPacket, i32, %struct.AVRational, i32 }
%struct.AVPacket = type { ptr, i64, i64, ptr, i32, i32, i32, ptr, i32, i64, i64, ptr, ptr, %struct.AVRational }
%struct.AVRational = type { i32, i32 }

; Function Attrs: nounwind uwtable
define i32 @ff_vorbis_stream_comment(ptr noundef %0, ptr noundef %1, ptr noundef %2, i32 noundef %3) #0 {
  %5 = alloca ptr, align 8
  %6 = alloca ptr, align 8
  %7 = alloca ptr, align 8
  %8 = alloca i32, align 4
  %9 = alloca i32, align 4
  store ptr %0, ptr %5, align 8, !tbaa !4
  store ptr %1, ptr %6, align 8, !tbaa !9
  store ptr %2, ptr %7, align 8, !tbaa !11
  store i32 %3, ptr %8, align 4, !tbaa !13
  call void @llvm.lifetime.start.p0(i64 4, ptr %9) #8
  %10 = load ptr, ptr %5, align 8, !tbaa !4
  %11 = load ptr, ptr %6, align 8, !tbaa !9
  %12 = getelementptr inbounds nuw %struct.AVStream, ptr %11, i32 0, i32 12
  %13 = load ptr, ptr %7, align 8, !tbaa !11
  %14 = load i32, ptr %8, align 4, !tbaa !13
  %15 = call i32 @ff_vorbis_comment(ptr noundef %10, ptr noundef %12, ptr noundef %13, i32 noundef %14, i32 noundef 1)
  store i32 %15, ptr %9, align 4, !tbaa !13
  %16 = load i32, ptr %9, align 4, !tbaa !13
  %17 = icmp sgt i32 %16, 0
  br i1 %17, label %18, label %23

18:                                               ; preds = %4
  %19 = load ptr, ptr %6, align 8, !tbaa !9
  %20 = getelementptr inbounds nuw %struct.AVStream, ptr %19, i32 0, i32 15
  %21 = load i32, ptr %20, align 8, !tbaa !15
  %22 = or i32 %21, 1
  store i32 %22, ptr %20, align 8, !tbaa !15
  br label %23

23:                                               ; preds = %18, %4
  %24 = load i32, ptr %9, align 4, !tbaa !13
  call void @llvm.lifetime.end.p0(i64 4, ptr %9) #8
  ret i32 %24
}