; Function Attrs: nounwind uwtable
define i32 @ff_vorbis_stream_comment(ptr noundef %0, ptr noundef %1, ptr noundef %2, i32 noundef %3) local_unnamed_addr #0 {
  %5 = getelementptr inbounds nuw i8, ptr %1, i64 80
  %6 = tail call i32 @ff_vorbis_comment(ptr noundef %0, ptr noundef nonnull %5, ptr noundef %2, i32 noundef %3, i32 noundef 1)
  %7 = icmp sgt i32 %6, 0
  br i1 %7, label %8, label %12

8:                                                ; preds = %4
  %9 = getelementptr inbounds nuw i8, ptr %1, i64 200
  %10 = load i32, ptr %9, align 8, !tbaa !4
  %11 = or i32 %10, 1
  store i32 %11, ptr %9, align 8, !tbaa !4
  br label %12

12:                                               ; preds = %8, %4
  ret i32 %6
}